(dp0
VServer
p1
Vcmsweb.cern.ch
p2
sVPort
p3
V
p4
sVRequestName
p5
V260324_153618:blhennin_crab_CombineLimits_NoSystematics_eeee_uuuuChannelsOnly
p6
sVvoRole
p7
VNULL
p8
sVvoGroup
p9
g4
sVinstance
p10
Vprod
p11
sVOriginalConfig
p12
ccopy_reg
_reconstructor
p13
(cWMCore.Configuration
Configuration
p14
c__builtin__
object
p15
Ntp16
Rp17
(dp18
V_internal_sections
p19
(lp20
VGeneral
p21
aVJobType
p22
aVData
p23
aVSite
p24
aVUser
p25
aVDebug
p26
asg21
g13
(cWMCore.Configuration
ConfigSection
p27
g15
Ntp28
Rp29
(dp30
V_internal_documentation
p31
g4
sV_internal_name
p32
g21
sV_internal_settings
p33
c__builtin__
set
p34
((lp35
g10
aVrequestName
p36
aVworkArea
p37
aVtransferOutputs
p38
atp39
Rp40
sV_internal_docstrings
p41
(dp42
sV_internal_children
p43
g34
((lp44
tp45
Rp46
sV_internal_parent_ref
p47
NsV_internal_skipChecks
p48
I00
sg36
VCombineLimits_NoSystematics_eeee_uuuuChannelsOnly
p49
sg37
Vcrab_projects
p50
sg38
I01
sg10
g11
sbsg22
g13
(g27
g15
Ntp51
Rp52
(dp53
g31
g4
sg32
g22
sg33
g34
((lp54
VpluginName
p55
aVpsetName
p56
aVoutputFiles
p57
aVinputFiles
p58
aVscriptExe
p59
atp60
Rp61
sg41
(dp62
sg43
g34
((lp63
tp64
Rp65
sg47
Nsg48
I00
sg55
VAnalysis
p66
sg56
VPSet.py
p67
sg58
(lp68
Vdatacard_Higgs_Combined.root
p69
asg59
VrunCombineCommands.py
p70
sg57
(lp71
VtestCombine_NoSystematics_eeee_uuuuChannelsOnly.root
p72
asbsg23
g13
(g27
g15
Ntp73
Rp74
(dp75
g31
g4
sg32
g23
sg33
g34
((lp76
Vsplitting
p77
aVunitsPerJob
p78
aVinputDBS
p79
aVpublication
p80
aVtotalUnits
p81
aVinputDataset
p82
atp83
Rp84
sg41
(dp85
sg43
g34
((lp86
tp87
Rp88
sg47
Nsg48
I00
sg82
V/Tau/Run2016H-UL2016_MiniAODv2_NanoAODv9-v1/NANOAOD
p89
sg79
Vglobal
p90
sg77
VFileBased
p91
sg78
I1
sg81
I1
sg80
I00
sbsg24
g13
(g27
g15
Ntp92
Rp93
(dp94
g31
g4
sg32
g24
sg33
g34
((lp95
VstorageSite
p96
atp97
Rp98
sg41
(dp99
sg43
g34
((lp100
tp101
Rp102
sg47
Nsg48
I00
sg96
VT3_US_FNALLPC
p103
sbsg25
g13
(g27
g15
Ntp104
Rp105
(dp106
g31
g4
sg32
g25
sg33
g34
((lp107
tp108
Rp109
sg41
(dp110
sg43
g34
((lp111
tp112
Rp113
sg47
Nsg48
I00
sbsg26
g13
(g27
g15
Ntp114
Rp115
(dp116
g31
g4
sg32
g26
sg33
g34
((lp117
tp118
Rp119
sg41
(dp120
sg43
g34
((lp121
tp122
Rp123
sg47
Nsg48
I00
sbsbs.