(dp0
VServer
p1
Vcmsweb.cern.ch
p2
sVPort
p3
V
p4
sVRequestName
p5
V260512_154946:blhennin_crab_CombineLimits_NoSystematics_eeee_uuuuChannelsOnly
p6
sVvoRole
p7
VNULL
p8
sVvoGroup
p9
g4
sVinstance
p10
Vprod
p11
sVOriginalConfig
p12
ccopy_reg
_reconstructor
p13
(cWMCore.Configuration
Configuration
p14
c__builtin__
object
p15
Ntp16
Rp17
(dp18
V_internal_sections
p19
(lp20
VGeneral
p21
aVJobType
p22
aVData
p23
aVSite
p24
aVUser
p25
aVDebug
p26
asg21
g13
(cWMCore.Configuration
ConfigSection
p27
g15
Ntp28
Rp29
(dp30
V_internal_documentation
p31
g4
sV_internal_name
p32
g21
sV_internal_settings
p33
c__builtin__
set
p34
((lp35
VworkArea
p36
aVtransferOutputs
p37
aVrequestName
p38
ag10
atp39
Rp40
sV_internal_docstrings
p41
(dp42
sV_internal_children
p43
g34
((lp44
tp45
Rp46
sV_internal_parent_ref
p47
NsV_internal_skipChecks
p48
I00
sg38
VCombineLimits_NoSystematics_eeee_uuuuChannelsOnly
p49
sg36
Vcrab_projects
p50
sg37
I01
sg10
g11
sbsg22
g13
(g27
g15
Ntp51
Rp52
(dp53
g31
g4
sg32
g22
sg33
g34
((lp54
VinputFiles
p55
aVpluginName
p56
aVscriptExe
p57
aVpsetName
p58
aVoutputFiles
p59
atp60
Rp61
sg41
(dp62
sg43
g34
((lp63
tp64
Rp65
sg47
Nsg48
I00
sg56
VAnalysis
p66
sg58
VPSet.py
p67
sg55
(lp68
Vdatacard_Higgs_Combined.root
p69
aVFrameworkJobReport.xml
p70
asg57
VrunCombineCommands.py
p71
sg59
(lp72
Vresult.txt
p73
asbsg23
g13
(g27
g15
Ntp74
Rp75
(dp76
g31
g4
sg32
g23
sg33
g34
((lp77
VtotalUnits
p78
aVinputDataset
p79
aVinputDBS
p80
aVsplitting
p81
aVpublication
p82
aVunitsPerJob
p83
atp84
Rp85
sg41
(dp86
sg43
g34
((lp87
tp88
Rp89
sg47
Nsg48
I00
sg79
V/Tau/Run2016H-UL2016_MiniAODv2_NanoAODv9-v1/NANOAOD
p90
sg80
Vglobal
p91
sg81
VFileBased
p92
sg83
I1
sg78
I1
sg82
I00
sbsg24
g13
(g27
g15
Ntp93
Rp94
(dp95
g31
g4
sg32
g24
sg33
g34
((lp96
VstorageSite
p97
atp98
Rp99
sg41
(dp100
sg43
g34
((lp101
tp102
Rp103
sg47
Nsg48
I00
sg97
VT3_US_FNALLPC
p104
sbsg25
g13
(g27
g15
Ntp105
Rp106
(dp107
g31
g4
sg32
g25
sg33
g34
((lp108
tp109
Rp110
sg41
(dp111
sg43
g34
((lp112
tp113
Rp114
sg47
Nsg48
I00
sbsg26
g13
(g27
g15
Ntp115
Rp116
(dp117
g31
g4
sg32
g26
sg33
g34
((lp118
tp119
Rp120
sg41
(dp121
sg43
g34
((lp122
tp123
Rp124
sg47
Nsg48
I00
sbsbs.