ccopy_reg
_reconstructor
p0
(cFWCore.ParameterSet.Config
Process
p1
c__builtin__
object
p2
Ntp3
Rp4
(dp5
V_Process__name
p6
VNoSplit
p7
sV_Process__filters
p8
(dp9
sV_Process__producers
p10
(dp11
sV_Process__switchproducers
p12
(dp13
sV_Process__source
p14
g0
(cFWCore.ParameterSet.Modules
Source
p15
g2
Ntp16
Rp17
(dp18
V_TypedParameterizable__type
p19
VEmptySource
p20
sV_Parameterizable__parameterNames
p21
(lp22
VfileNames
p23
asV_isFrozen
p24
I00
sV_Parameterizable__validator
p25
Nsg23
g0
(cFWCore.ParameterSet.Types
vstring
p26
c__builtin__
list
p27
(lp28
V
p29
atp30
Rp31
(dp32
g24
I00
sV_ParameterTypeBase__isTracked
p33
I00
sV_isModified
p34
I00
sV_nPerLine
p35
I1
sbsg34
I00
sV_filename
p36
V/cvmfs/cms.cern.ch/el9_amd64_gcc12/cms/cmssw/CMSSW_14_1_0_pre4/src/FWCore/ParameterSet/python/Modules.py
p37
sV_lineNumber
p38
I195
sbsV_Process__looper
p39
NsV_Process__subProcesses
p40
(lp41
sV_Process__schedule
p42
NsV_Process__analyzers
p43
(dp44
sV_Process__outputmodules
p45
(dp46
sV_Process__paths
p47
g0
(cFWCore.ParameterSet.DictTypes
SortedKeysDict
p48
c__builtin__
dict
p49
(dp50
tp51
Rp52
(dp53
Vlist
p54
(lp55
sbsV_Process__endpaths
p56
g0
(g48
g49
(dp57
tp58
Rp59
(dp60
g54
(lp61
sbsV_Process__finalpaths
p62
g0
(g48
g49
(dp63
tp64
Rp65
(dp66
g54
(lp67
sbsV_Process__sequences
p68
(dp69
sV_Process__tasks
p70
(dp71
sV_Process__conditionaltasks
p72
(dp73
sV_Process__services
p74
(dp75
VMessageLogger
p76
g0
(cFWCore.ParameterSet.Modules
Service
p77
g2
Ntp78
Rp79
(dp80
g19
g76
sg21
(lp81
VsuppressWarning
p82
aVsuppressFwkInfo
p83
aVsuppressInfo
p84
aVsuppressDebug
p85
aVdebugModules
p86
aVcout
p87
aVdefault
p88
aVcerr
p89
aVfiles
p90
asg24
I00
sg25
g0
(cFWCore.ParameterSet.Types
_OptionalParameter
p91
g2
Ntp92
Rp93
(dp94
g24
I00
sg33
I00
sg34
I00
sV_ProxyParameter__type
p95
g0
(cFWCore.ParameterSet.Types
_PSetTemplate
p96
g2
Ntp97
Rp98
(dp99
V_pset
p100
g0
(cFWCore.ParameterSet.Types
PSet
p101
g2
Ntp102
Rp103
(dp104
g24
I00
sg33
I01
sg34
I00
sg21
(lp105
VreportEvery
p106
aVlimit
p107
aVtimespan
p108
asg25
Nsg106
g0
(cFWCore.ParameterSet.Types
int32
p109
g2
Ntp110
Rp111
(dp112
g24
I00
sg33
I00
sg34
I00
sV_value
p113
I1
sbsg107
g0
(g91
g2
Ntp114
Rp115
(dp116
g24
I00
sg33
I00
sg34
I00
sg95
g109
sV_ProxyParameter__value
p117
Nsbsg108
g0
(g91
g2
Ntp118
Rp119
(dp120
g24
I00
sg33
I00
sg34
I00
sg95
g109
sg117
Nsbsbsbsg117
Nsbsg82
g0
(g26
g27
(lp121
tp122
Rp123
(dp124
g24
I00
sg33
I00
sg34
I00
sg35
I1
sbsg34
I00
sg83
g0
(g26
g27
(lp125
tp126
Rp127
(dp128
g24
I00
sg33
I00
sg34
I00
sg35
I1
sbsg84
g0
(g26
g27
(lp129
tp130
Rp131
(dp132
g24
I00
sg33
I00
sg34
I00
sg35
I1
sbsg85
g0
(g26
g27
(lp133
tp134
Rp135
(dp136
g24
I00
sg33
I00
sg34
I00
sg35
I1
sbsg86
g0
(g26
g27
(lp137
tp138
Rp139
(dp140
g24
I00
sg33
I00
sg34
I00
sg35
I1
sbsg87
g0
(g101
g2
Ntp141
Rp142
(dp143
g24
I00
sg33
I00
sg34
I00
sg21
(lp144
VnoLineBreaks
p145
aVnoTimeStamps
p146
aVlineLength
p147
aVthreshold
p148
aVstatisticsThreshold
p149
aVenableStatistics
p150
aVresetStatistics
p151
aVenable
p152
asg25
g93
sg145
g0
(g91
g2
Ntp153
Rp154
(dp155
g24
I00
sg33
I00
sg34
I00
sg95
cFWCore.ParameterSet.Types
bool
p156
sg117
Nsbsg146
g0
(g91
g2
Ntp157
Rp158
(dp159
g24
I00
sg33
I00
sg34
I00
sg95
g156
sg117
Nsbsg147
g0
(g91
g2
Ntp160
Rp161
(dp162
g24
I00
sg33
I00
sg34
I00
sg95
g109
sg117
Nsbsg148
g0
(g91
g2
Ntp163
Rp164
(dp165
g24
I00
sg33
I00
sg34
I00
sg95
cFWCore.ParameterSet.Types
string
p166
sg117
Nsbsg149
g0
(g91
g2
Ntp167
Rp168
(dp169
g24
I00
sg33
I00
sg34
I00
sg95
g166
sg117
Nsbsg150
g0
(g156
g2
Ntp170
Rp171
(dp172
g24
I00
sg33
I00
sg34
I00
sg113
I00
sbsg151
g0
(g156
g2
Ntp173
Rp174
(dp175
g24
I00
sg33
I00
sg34
I00
sg113
I00
sbsg152
g0
(g156
g2
Ntp176
Rp177
(dp178
g24
I00
sg33
I00
sg34
I00
sg113
I00
sbsbsg88
g0
(g101
g2
Ntp179
Rp180
(dp181
g24
I00
sg33
I00
sg34
I00
sg21
(lp182
g106
ag107
ag108
ag145
ag146
ag147
ag148
ag149
asg25
g93
sg106
g0
(g109
g2
Ntp183
Rp184
(dp185
g24
I00
sg33
I00
sg34
I00
sg113
I1
sbsg107
g0
(g91
g2
Ntp186
Rp187
(dp188
g24
I00
sg33
I00
sg34
I00
sg95
g109
sg117
Nsbsg108
g0
(g91
g2
Ntp189
Rp190
(dp191
g24
I00
sg33
I00
sg34
I00
sg95
g109
sg117
Nsbsg145
g0
(g156
g2
Ntp192
Rp193
(dp194
g24
I00
sg33
I00
sg34
I00
sg113
I00
sbsg146
g0
(g156
g2
Ntp195
Rp196
(dp197
g24
I00
sg33
I00
sg34
I00
sg113
I00
sbsg147
g0
(g109
g2
Ntp198
Rp199
(dp200
g24
I00
sg33
I00
sg34
I00
sg113
I80
sbsg148
g0
(g166
g2
Ntp201
Rp202
(dp203
g24
I00
sg33
I00
sg34
I00
sg113
VINFO
p204
sbsg149
g0
(g166
g2
Ntp205
Rp206
(dp207
g24
I00
sg33
I00
sg34
I00
sg113
g204
sbsbsg89
g0
(g101
g2
Ntp208
Rp209
(dp210
g24
I00
sg33
I00
sg34
I00
sg21
(lp211
g145
ag146
ag147
ag148
ag149
ag152
ag150
ag151
ag204
aVFwkReport
p212
ag88
aVRoot_NoDictionary
p213
aVFwkSummary
p214
asg25
g93
sg145
g0
(g91
g2
Ntp215
Rp216
(dp217
g24
I00
sg33
I00
sg34
I00
sg95
g156
sg117
Nsbsg146
g0
(g156
g2
Ntp218
Rp219
(dp220
g24
I00
sg33
I00
sg34
I00
sg113
I00
sbsg147
g0
(g91
g2
Ntp221
Rp222
(dp223
g24
I00
sg33
I00
sg34
I00
sg95
g109
sg117
Nsbsg148
g0
(g166
g2
Ntp224
Rp225
(dp226
g24
I00
sg33
I00
sg34
I00
sg113
g204
sbsg149
g0
(g166
g2
Ntp227
Rp228
(dp229
g24
I00
sg33
I00
sg34
I00
sg113
VWARNING
p230
sbsg152
g0
(g156
g2
Ntp231
Rp232
(dp233
g24
I00
sg33
I00
sg34
I00
sg113
I01
sbsg150
g0
(g156
g2
Ntp234
Rp235
(dp236
g24
I00
sg33
I00
sg34
I00
sg113
I00
sbsg151
g0
(g156
g2
Ntp237
Rp238
(dp239
g24
I00
sg33
I00
sg34
I00
sg113
I00
sbsg204
g0
(g101
g2
Ntp240
Rp241
(dp242
g24
I00
sg33
I00
sg34
I00
sg21
(lp243
g107
asg25
Nsg107
g0
(g109
g2
Ntp244
Rp245
(dp246
g24
I00
sg33
I00
sg34
I00
sg113
I0
sbsbsg212
g0
(g101
g2
Ntp247
Rp248
(dp249
g24
I00
sg33
I00
sg34
I00
sg21
(lp250
g106
ag107
asg25
Nsg106
g0
(g109
g2
Ntp251
Rp252
(dp253
g24
I00
sg33
I00
sg34
I00
sg113
I1
sbsg107
g0
(g109
g2
Ntp254
Rp255
(dp256
g24
I00
sg33
I00
sg34
I00
sg113
I10000000
sbsbsg88
g0
(g101
g2
Ntp257
Rp258
(dp259
g24
I00
sg33
I00
sg34
I00
sg21
(lp260
g107
asg25
Nsg107
g0
(g109
g2
Ntp261
Rp262
(dp263
g24
I00
sg33
I00
sg34
I00
sg113
I10000000
sbsbsg213
g0
(g101
g2
Ntp264
Rp265
(dp266
g24
I00
sg33
I00
sg34
I00
sg21
(lp267
g107
asg25
Nsg107
g0
(g109
g2
Ntp268
Rp269
(dp270
g24
I00
sg33
I00
sg34
I00
sg113
I0
sbsbsg214
g0
(g101
g2
Ntp271
Rp272
(dp273
g24
I00
sg33
I00
sg34
I00
sg21
(lp274
g106
ag107
asg25
Nsg106
g0
(g109
g2
Ntp275
Rp276
(dp277
g24
I00
sg33
I00
sg34
I00
sg113
I1
sbsg107
g0
(g109
g2
Ntp278
Rp279
(dp280
g24
I00
sg33
I00
sg34
I00
sg113
I10000000
sbsbsbsg90
g0
(g101
g2
Ntp281
Rp282
(dp283
g24
I00
sg33
I00
sg34
I00
sg21
(lp284
sg25
g0
(g91
g2
Ntp285
Rp286
(dp287
g24
I00
sg33
I00
sg34
I00
sg95
g0
(g96
g2
Ntp288
Rp289
(dp290
g100
g0
(g101
g2
Ntp291
Rp292
(dp293
g24
I00
sg33
I01
sg34
I00
sg21
(lp294
g145
ag146
ag147
ag148
ag149
ag150
ag151
aVfilename
p295
aVextension
p296
aVoutput
p297
asg25
g93
sg145
g0
(g91
g2
Ntp298
Rp299
(dp300
g24
I00
sg33
I00
sg34
I00
sg95
g156
sg117
Nsbsg146
g0
(g91
g2
Ntp301
Rp302
(dp303
g24
I00
sg33
I00
sg34
I00
sg95
g156
sg117
Nsbsg147
g0
(g91
g2
Ntp304
Rp305
(dp306
g24
I00
sg33
I00
sg34
I00
sg95
g109
sg117
Nsbsg148
g0
(g91
g2
Ntp307
Rp308
(dp309
g24
I00
sg33
I00
sg34
I00
sg95
g166
sg117
Nsbsg149
g0
(g91
g2
Ntp310
Rp311
(dp312
g24
I00
sg33
I00
sg34
I00
sg95
g166
sg117
Nsbsg150
g0
(g156
g2
Ntp313
Rp314
(dp315
g24
I00
sg33
I00
sg34
I00
sg113
I00
sbsg151
g0
(g156
g2
Ntp316
Rp317
(dp318
g24
I00
sg33
I00
sg34
I00
sg113
I00
sbsg295
g0
(g91
g2
Ntp319
Rp320
(dp321
g24
I00
sg33
I00
sg34
I00
sg95
g166
sg117
Nsbsg296
g0
(g91
g2
Ntp322
Rp323
(dp324
g24
I00
sg33
I00
sg34
I00
sg95
g166
sg117
Nsbsg297
g0
(g91
g2
Ntp325
Rp326
(dp327
g24
I00
sg33
I00
sg34
I00
sg95
g166
sg117
Nsbsbsbsg117
Nsbsbsg36
g37
sg38
I13
sV_inProcess
p328
I01
sbssV_Process__essources
p329
(dp330
sV_Process__esproducers
p331
(dp332
sV_Process__esprefers
p333
(dp334
sV_Process__aliases
p335
(dp336
sV_Process__psets
p337
(dp338
VmaxLuminosityBlocks
p339
g0
(g101
g2
Ntp340
Rp341
(dp342
g24
I00
sg33
I00
sg34
I00
sg21
(lp343
Vinput
p344
asg25
Nsg344
g0
(g109
g2
Ntp345
Rp346
(dp347
g24
I00
sg33
I00
sg34
I00
sg113
I-1
sbsV_Labelable__label
p348
g339
sbsVmaxEvents
p349
g0
(g101
g2
Ntp350
Rp351
(dp352
g24
I00
sg33
I00
sg34
I01
sg21
(lp353
g344
ag297
asg25
Nsg344
g0
(g91
g2
Ntp354
Rp355
(dp356
g24
I00
sg33
I00
sg34
I00
sg95
g109
sg117
g0
(g109
g2
Ntp357
Rp358
(dp359
g24
I00
sg33
I00
sg34
I00
sg113
I-1
sbsbsg297
g0
(g91
g2
Ntp360
Rp361
(dp362
g24
I00
sg33
I00
sg34
I00
sg95
g0
(cFWCore.ParameterSet.Types
_AllowedParameterTypes
p363
g2
Ntp364
Rp365
(dp366
V_AllowedParameterTypes__types
p367
(g109
g101
tp368
sV_default
p369
NsV__name__
p370
Vallowed(cms.int32,cms.PSet)
p371
sbsg117
Nsbsg348
g349
sbsVoptions
p372
g0
(g101
g2
Ntp373
Rp374
(dp375
g24
I00
sg33
I00
sg34
I01
sg21
(lp376
VnumberOfThreads
p377
aVnumberOfStreams
p378
aVnumberOfConcurrentRuns
p379
aVnumberOfConcurrentLuminosityBlocks
p380
aVeventSetup
p381
aVaccelerators
p382
aVwantSummary
p383
aVfileMode
p384
aVforceEventSetupCacheClearOnNewRun
p385
aVthrowIfIllegalParameter
p386
aVprintDependencies
p387
aVdeleteNonConsumedUnscheduledModules
p388
aVsizeOfStackForThreadsInKB
p389
aVRethrow
p390
aVTryToContinue
p391
aVIgnoreCompletely
p392
aVmodulesToCallForTryToContinue
p393
aVcanDeleteEarly
p394
aVholdsReferencesToDeleteEarly
p395
aVmodulesToIgnoreForDeleteEarly
p396
aVdumpOptions
p397
aVallowUnscheduled
p398
aVemptyRunLumiMode
p399
aVmakeTriggerResults
p400
asg25
Nsg377
g0
(cFWCore.ParameterSet.Types
uint32
p401
g2
Ntp402
Rp403
(dp404
g24
I00
sg33
I00
sg34
I00
sg113
I1
sbsg378
g0
(g401
g2
Ntp405
Rp406
(dp407
g24
I00
sg33
I00
sg34
I00
sg113
I0
sbsg379
g0
(g401
g2
Ntp408
Rp409
(dp410
g24
I00
sg33
I00
sg34
I00
sg113
I1
sbsg380
g0
(g401
g2
Ntp411
Rp412
(dp413
g24
I00
sg33
I00
sg34
I00
sg113
I0
sbsg381
g0
(g101
g2
Ntp414
Rp415
(dp416
g24
I00
sg33
I00
sg34
I00
sg21
(lp417
VnumberOfConcurrentIOVs
p418
aVforceNumberOfConcurrentIOVs
p419
asg25
Nsg418
g0
(g401
g2
Ntp420
Rp421
(dp422
g24
I00
sg33
I00
sg34
I00
sg113
I0
sbsg419
g0
(g101
g2
Ntp423
Rp424
(dp425
g24
I00
sg33
I00
sg34
I00
sg21
(lp426
sg25
g0
(cFWCore.ParameterSet.Types
_RequiredParameter
p427
g2
Ntp428
Rp429
(dp430
g24
I00
sg33
I00
sg34
I00
sg95
g401
sg117
Nsbsbsbsg382
g0
(g26
g27
(lp431
V*
p432
atp433
Rp434
(dp435
g24
I00
sg33
I00
sg34
I00
sg35
I1
sbsg383
g0
(g156
g2
Ntp436
Rp437
(dp438
g24
I00
sg33
I00
sg34
I00
sg113
I01
sbsg384
g0
(g166
g2
Ntp439
Rp440
(dp441
g24
I00
sg33
I00
sg34
I00
sg113
VFULLMERGE
p442
sbsg385
g0
(g156
g2
Ntp443
Rp444
(dp445
g24
I00
sg33
I00
sg34
I00
sg113
I00
sbsg386
g0
(g156
g2
Ntp446
Rp447
(dp448
g24
I00
sg33
I00
sg34
I00
sg113
I01
sbsg387
g0
(g156
g2
Ntp449
Rp450
(dp451
g24
I00
sg33
I00
sg34
I00
sg113
I00
sbsg388
g0
(g156
g2
Ntp452
Rp453
(dp454
g24
I00
sg33
I00
sg34
I00
sg113
I01
sbsg389
g0
(g91
g2
Ntp455
Rp456
(dp457
g24
I00
sg33
I00
sg34
I00
sg95
g401
sg117
Nsbsg390
g0
(g26
g27
(lp458
tp459
Rp460
(dp461
g24
I00
sg33
I00
sg34
I00
sg35
I1
sbsg391
g0
(g26
g27
(lp462
tp463
Rp464
(dp465
g24
I00
sg33
I00
sg34
I00
sg35
I1
sbsg392
g0
(g26
g27
(lp466
tp467
Rp468
(dp469
g24
I00
sg33
I00
sg34
I00
sg35
I1
sbsg393
g0
(g26
g27
(lp470
tp471
Rp472
(dp473
g24
I00
sg33
I00
sg34
I00
sg35
I1
sbsg394
g0
(g26
g27
(lp474
tp475
Rp476
(dp477
g24
I00
sg33
I00
sg34
I00
sg35
I1
sbsg395
g0
(cFWCore.ParameterSet.Types
VPSet
p478
g27
(lp479
tp480
Rp481
(dp482
g24
I00
sg33
I00
sg34
I00
sg35
I1
sbsg396
g0
(g26
g27
(lp483
tp484
Rp485
(dp486
g24
I00
sg33
I00
sg34
I00
sg35
I1
sbsg397
g0
(g156
g2
Ntp487
Rp488
(dp489
g24
I00
sg33
I00
sg34
I00
sg113
I00
sbsg398
g0
(cFWCore.ParameterSet.Types
_ObsoleteParameter
p490
g2
Ntp491
Rp492
(dp493
g24
I00
sg33
I00
sg34
I00
sg95
g156
sg117
Nsbsg399
g0
(g490
g2
Ntp494
Rp495
(dp496
g24
I00
sg33
I00
sg34
I00
sg95
g166
sg117
Nsbsg400
g0
(g490
g2
Ntp497
Rp498
(dp499
g24
I00
sg33
I00
sg34
I00
sg95
g156
sg117
Nsbsg348
g372
sbssV_Process__vpsets
p500
(dp501
sV_cloneToObjectDict
p502
(dp503
L140226342860256L
g0
(g101
g2
Ntp504
Rp505
(dp506
g24
I00
sg33
I00
sg34
I00
sg21
(lp507
g377
ag378
ag379
ag380
ag381
ag382
ag383
ag384
ag385
ag386
ag387
ag388
ag389
ag390
ag391
ag392
ag393
ag394
ag395
ag396
ag397
ag398
ag399
ag400
asg25
Nsg377
g0
(g401
g2
Ntp508
Rp509
(dp510
g24
I00
sg33
I00
sg34
I00
sg113
I1
sbsg378
g0
(g401
g2
Ntp511
Rp512
(dp513
g24
I00
sg33
I00
sg34
I00
sg113
I0
sbsg379
g0
(g401
g2
Ntp514
Rp515
(dp516
g24
I00
sg33
I00
sg34
I00
sg113
I1
sbsg380
g0
(g401
g2
Ntp517
Rp518
(dp519
g24
I00
sg33
I00
sg34
I00
sg113
I0
sbsg381
g0
(g101
g2
Ntp520
Rp521
(dp522
g24
I00
sg33
I00
sg34
I00
sg21
(lp523
g418
ag419
asg25
Nsg418
g0
(g401
g2
Ntp524
Rp525
(dp526
g24
I00
sg33
I00
sg34
I00
sg113
I0
sbsg419
g0
(g101
g2
Ntp527
Rp528
(dp529
g24
I00
sg33
I00
sg34
I00
sg21
(lp530
sg25
g0
(g427
g2
Ntp531
Rp532
(dp533
g24
I00
sg33
I00
sg34
I00
sg95
g401
sg117
Nsbsbsbsg382
g0
(g26
g27
(lp534
g432
atp535
Rp536
(dp537
g24
I00
sg33
I00
sg34
I00
sg35
I1
sbsg383
g0
(g156
g2
Ntp538
Rp539
(dp540
g24
I00
sg33
I00
sg34
I00
sg113
I00
sbsg384
g0
(g166
g2
Ntp541
Rp542
(dp543
g24
I00
sg33
I00
sg34
I00
sg113
g442
sbsg385
g0
(g156
g2
Ntp544
Rp545
(dp546
g24
I00
sg33
I00
sg34
I00
sg113
I00
sbsg386
g0
(g156
g2
Ntp547
Rp548
(dp549
g24
I00
sg33
I00
sg34
I00
sg113
I01
sbsg387
g0
(g156
g2
Ntp550
Rp551
(dp552
g24
I00
sg33
I00
sg34
I00
sg113
I00
sbsg388
g0
(g156
g2
Ntp553
Rp554
(dp555
g24
I00
sg33
I00
sg34
I00
sg113
I01
sbsg389
g0
(g91
g2
Ntp556
Rp557
(dp558
g24
I00
sg33
I00
sg34
I00
sg95
g401
sg117
Nsbsg390
g0
(g26
g27
(lp559
tp560
Rp561
(dp562
g24
I00
sg33
I00
sg34
I00
sg35
I1
sbsg391
g0
(g26
g27
(lp563
tp564
Rp565
(dp566
g24
I00
sg33
I00
sg34
I00
sg35
I1
sbsg392
g0
(g26
g27
(lp567
tp568
Rp569
(dp570
g24
I00
sg33
I00
sg34
I00
sg35
I1
sbsg393
g0
(g26
g27
(lp571
tp572
Rp573
(dp574
g24
I00
sg33
I00
sg34
I00
sg35
I1
sbsg394
g0
(g26
g27
(lp575
tp576
Rp577
(dp578
g24
I00
sg33
I00
sg34
I00
sg35
I1
sbsg395
g0
(g478
g27
(lp579
tp580
Rp581
(dp582
g24
I00
sg33
I00
sg34
I00
sg35
I1
sbsg396
g0
(g26
g27
(lp583
tp584
Rp585
(dp586
g24
I00
sg33
I00
sg34
I00
sg35
I1
sbsg397
g0
(g156
g2
Ntp587
Rp588
(dp589
g24
I00
sg33
I00
sg34
I00
sg113
I00
sbsg398
g0
(g490
g2
Ntp590
Rp591
(dp592
g24
I00
sg33
I00
sg34
I00
sg95
g156
sg117
Nsbsg399
g0
(g490
g2
Ntp593
Rp594
(dp595
g24
I00
sg33
I00
sg34
I00
sg95
g166
sg117
Nsbsg400
g0
(g490
g2
Ntp596
Rp597
(dp598
g24
I00
sg33
I00
sg34
I00
sg95
g156
sg117
Nsbsg348
NsbsL140226339501104L
g0
(g101
g2
Ntp599
Rp600
(dp601
g24
I00
sg33
I00
sg34
I00
sg21
(lp602
g344
ag297
asg25
Nsg344
g0
(g91
g2
Ntp603
Rp604
(dp605
g24
I00
sg33
I00
sg34
I00
sg95
g109
sg117
Nsbsg297
g0
(g91
g2
Ntp606
Rp607
(dp608
g24
I00
sg33
I00
sg34
I00
sg95
g0
(g363
g2
Ntp609
Rp610
(dp611
g367
(g109
g101
tp612
sg369
Nsg370
Vallowed(cms.int32,cms.PSet)
p613
sbsg117
Nsbsg348
NsbsL140226339501008L
g341
sL140226328402768L
g351
sL140226328402864L
g374
ssV_Process__InExtendCall
p614
I00
sV_Process__partialschedules
p615
(dp616
sV_Process__isStrict
p617
I00
sV_Process__modifiers
p618
(tsV_Process__accelerators
p619
(dp620
sg339
g341
sg76
g79
sVsource
p621
g17
sg20
g17
sg349
g351
sg372
g374
sb.