ccopy_reg
_reconstructor
p0
(cFWCore.ParameterSet.Config
Process
p1
c__builtin__
object
p2
Ntp3
Rp4
(dp5
V_Process__name
p6
VNoSplit
p7
sV_Process__filters
p8
(dp9
sV_Process__producers
p10
(dp11
sV_Process__switchproducers
p12
(dp13
sV_Process__source
p14
g0
(cFWCore.ParameterSet.Modules
Source
p15
g2
Ntp16
Rp17
(dp18
V_TypedParameterizable__type
p19
VEmptySource
p20
sV_Parameterizable__parameterNames
p21
(lp22
VnumberEventsInRun
p23
aVfirstRun
p24
asV_isFrozen
p25
I00
sV_Parameterizable__validator
p26
Nsg23
g0
(cFWCore.ParameterSet.Types
uint32
p27
g2
Ntp28
Rp29
(dp30
g25
I00
sV_ParameterTypeBase__isTracked
p31
I00
sV_isModified
p32
I00
sV_value
p33
I1
sbsg32
I00
sg24
g0
(g27
g2
Ntp34
Rp35
(dp36
g25
I00
sg31
I00
sg32
I00
sg33
I1
sbsV_filename
p37
V/cvmfs/cms.cern.ch/el9_amd64_gcc12/cms/cmssw/CMSSW_14_1_0_pre4/src/FWCore/ParameterSet/python/Modules.py
p38
sV_lineNumber
p39
I195
sbsV_Process__looper
p40
NsV_Process__subProcesses
p41
(lp42
sV_Process__schedule
p43
NsV_Process__analyzers
p44
(dp45
sV_Process__outputmodules
p46
(dp47
sV_Process__paths
p48
g0
(cFWCore.ParameterSet.DictTypes
SortedKeysDict
p49
c__builtin__
dict
p50
(dp51
tp52
Rp53
(dp54
Vlist
p55
(lp56
sbsV_Process__endpaths
p57
g0
(g49
g50
(dp58
tp59
Rp60
(dp61
g55
(lp62
sbsV_Process__finalpaths
p63
g0
(g49
g50
(dp64
tp65
Rp66
(dp67
g55
(lp68
sbsV_Process__sequences
p69
(dp70
sV_Process__tasks
p71
(dp72
sV_Process__conditionaltasks
p73
(dp74
sV_Process__services
p75
(dp76
VMessageLogger
p77
g0
(cFWCore.ParameterSet.Modules
Service
p78
g2
Ntp79
Rp80
(dp81
g19
g77
sg21
(lp82
VsuppressWarning
p83
aVsuppressFwkInfo
p84
aVsuppressInfo
p85
aVsuppressDebug
p86
aVdebugModules
p87
aVcout
p88
aVdefault
p89
aVcerr
p90
aVfiles
p91
asg25
I00
sg26
g0
(cFWCore.ParameterSet.Types
_OptionalParameter
p92
g2
Ntp93
Rp94
(dp95
g25
I00
sg31
I00
sg32
I00
sV_ProxyParameter__type
p96
g0
(cFWCore.ParameterSet.Types
_PSetTemplate
p97
g2
Ntp98
Rp99
(dp100
V_pset
p101
g0
(cFWCore.ParameterSet.Types
PSet
p102
g2
Ntp103
Rp104
(dp105
g25
I00
sg31
I01
sg32
I00
sg21
(lp106
VreportEvery
p107
aVlimit
p108
aVtimespan
p109
asg26
Nsg107
g0
(cFWCore.ParameterSet.Types
int32
p110
g2
Ntp111
Rp112
(dp113
g25
I00
sg31
I00
sg32
I00
sg33
I1
sbsg108
g0
(g92
g2
Ntp114
Rp115
(dp116
g25
I00
sg31
I00
sg32
I00
sg96
g110
sV_ProxyParameter__value
p117
Nsbsg109
g0
(g92
g2
Ntp118
Rp119
(dp120
g25
I00
sg31
I00
sg32
I00
sg96
g110
sg117
Nsbsbsbsg117
Nsbsg83
g0
(cFWCore.ParameterSet.Types
vstring
p121
c__builtin__
list
p122
(lp123
tp124
Rp125
(dp126
g25
I00
sg31
I00
sg32
I00
sV_nPerLine
p127
I1
sbsg32
I00
sg84
g0
(g121
g122
(lp128
tp129
Rp130
(dp131
g25
I00
sg31
I00
sg32
I00
sg127
I1
sbsg85
g0
(g121
g122
(lp132
tp133
Rp134
(dp135
g25
I00
sg31
I00
sg32
I00
sg127
I1
sbsg86
g0
(g121
g122
(lp136
tp137
Rp138
(dp139
g25
I00
sg31
I00
sg32
I00
sg127
I1
sbsg87
g0
(g121
g122
(lp140
tp141
Rp142
(dp143
g25
I00
sg31
I00
sg32
I00
sg127
I1
sbsg88
g0
(g102
g2
Ntp144
Rp145
(dp146
g25
I00
sg31
I00
sg32
I00
sg21
(lp147
VnoLineBreaks
p148
aVnoTimeStamps
p149
aVlineLength
p150
aVthreshold
p151
aVstatisticsThreshold
p152
aVenableStatistics
p153
aVresetStatistics
p154
aVenable
p155
asg26
g94
sg148
g0
(g92
g2
Ntp156
Rp157
(dp158
g25
I00
sg31
I00
sg32
I00
sg96
cFWCore.ParameterSet.Types
bool
p159
sg117
Nsbsg149
g0
(g92
g2
Ntp160
Rp161
(dp162
g25
I00
sg31
I00
sg32
I00
sg96
g159
sg117
Nsbsg150
g0
(g92
g2
Ntp163
Rp164
(dp165
g25
I00
sg31
I00
sg32
I00
sg96
g110
sg117
Nsbsg151
g0
(g92
g2
Ntp166
Rp167
(dp168
g25
I00
sg31
I00
sg32
I00
sg96
cFWCore.ParameterSet.Types
string
p169
sg117
Nsbsg152
g0
(g92
g2
Ntp170
Rp171
(dp172
g25
I00
sg31
I00
sg32
I00
sg96
g169
sg117
Nsbsg153
g0
(g159
g2
Ntp173
Rp174
(dp175
g25
I00
sg31
I00
sg32
I00
sg33
I00
sbsg154
g0
(g159
g2
Ntp176
Rp177
(dp178
g25
I00
sg31
I00
sg32
I00
sg33
I00
sbsg155
g0
(g159
g2
Ntp179
Rp180
(dp181
g25
I00
sg31
I00
sg32
I00
sg33
I00
sbsbsg89
g0
(g102
g2
Ntp182
Rp183
(dp184
g25
I00
sg31
I00
sg32
I00
sg21
(lp185
g107
ag108
ag109
ag148
ag149
ag150
ag151
ag152
asg26
g94
sg107
g0
(g110
g2
Ntp186
Rp187
(dp188
g25
I00
sg31
I00
sg32
I00
sg33
I1
sbsg108
g0
(g92
g2
Ntp189
Rp190
(dp191
g25
I00
sg31
I00
sg32
I00
sg96
g110
sg117
Nsbsg109
g0
(g92
g2
Ntp192
Rp193
(dp194
g25
I00
sg31
I00
sg32
I00
sg96
g110
sg117
Nsbsg148
g0
(g159
g2
Ntp195
Rp196
(dp197
g25
I00
sg31
I00
sg32
I00
sg33
I00
sbsg149
g0
(g159
g2
Ntp198
Rp199
(dp200
g25
I00
sg31
I00
sg32
I00
sg33
I00
sbsg150
g0
(g110
g2
Ntp201
Rp202
(dp203
g25
I00
sg31
I00
sg32
I00
sg33
I80
sbsg151
g0
(g169
g2
Ntp204
Rp205
(dp206
g25
I00
sg31
I00
sg32
I00
sg33
VINFO
p207
sbsg152
g0
(g169
g2
Ntp208
Rp209
(dp210
g25
I00
sg31
I00
sg32
I00
sg33
g207
sbsbsg90
g0
(g102
g2
Ntp211
Rp212
(dp213
g25
I00
sg31
I00
sg32
I00
sg21
(lp214
g148
ag149
ag150
ag151
ag152
ag155
ag153
ag154
ag207
aVFwkReport
p215
ag89
aVRoot_NoDictionary
p216
aVFwkSummary
p217
asg26
g94
sg148
g0
(g92
g2
Ntp218
Rp219
(dp220
g25
I00
sg31
I00
sg32
I00
sg96
g159
sg117
Nsbsg149
g0
(g159
g2
Ntp221
Rp222
(dp223
g25
I00
sg31
I00
sg32
I00
sg33
I00
sbsg150
g0
(g92
g2
Ntp224
Rp225
(dp226
g25
I00
sg31
I00
sg32
I00
sg96
g110
sg117
Nsbsg151
g0
(g169
g2
Ntp227
Rp228
(dp229
g25
I00
sg31
I00
sg32
I00
sg33
g207
sbsg152
g0
(g169
g2
Ntp230
Rp231
(dp232
g25
I00
sg31
I00
sg32
I00
sg33
VWARNING
p233
sbsg155
g0
(g159
g2
Ntp234
Rp235
(dp236
g25
I00
sg31
I00
sg32
I00
sg33
I01
sbsg153
g0
(g159
g2
Ntp237
Rp238
(dp239
g25
I00
sg31
I00
sg32
I00
sg33
I00
sbsg154
g0
(g159
g2
Ntp240
Rp241
(dp242
g25
I00
sg31
I00
sg32
I00
sg33
I00
sbsg207
g0
(g102
g2
Ntp243
Rp244
(dp245
g25
I00
sg31
I00
sg32
I00
sg21
(lp246
g108
asg26
Nsg108
g0
(g110
g2
Ntp247
Rp248
(dp249
g25
I00
sg31
I00
sg32
I00
sg33
I0
sbsbsg215
g0
(g102
g2
Ntp250
Rp251
(dp252
g25
I00
sg31
I00
sg32
I00
sg21
(lp253
g107
ag108
asg26
Nsg107
g0
(g110
g2
Ntp254
Rp255
(dp256
g25
I00
sg31
I00
sg32
I00
sg33
I1
sbsg108
g0
(g110
g2
Ntp257
Rp258
(dp259
g25
I00
sg31
I00
sg32
I00
sg33
I10000000
sbsbsg89
g0
(g102
g2
Ntp260
Rp261
(dp262
g25
I00
sg31
I00
sg32
I00
sg21
(lp263
g108
asg26
Nsg108
g0
(g110
g2
Ntp264
Rp265
(dp266
g25
I00
sg31
I00
sg32
I00
sg33
I10000000
sbsbsg216
g0
(g102
g2
Ntp267
Rp268
(dp269
g25
I00
sg31
I00
sg32
I00
sg21
(lp270
g108
asg26
Nsg108
g0
(g110
g2
Ntp271
Rp272
(dp273
g25
I00
sg31
I00
sg32
I00
sg33
I0
sbsbsg217
g0
(g102
g2
Ntp274
Rp275
(dp276
g25
I00
sg31
I00
sg32
I00
sg21
(lp277
g107
ag108
asg26
Nsg107
g0
(g110
g2
Ntp278
Rp279
(dp280
g25
I00
sg31
I00
sg32
I00
sg33
I1
sbsg108
g0
(g110
g2
Ntp281
Rp282
(dp283
g25
I00
sg31
I00
sg32
I00
sg33
I10000000
sbsbsbsg91
g0
(g102
g2
Ntp284
Rp285
(dp286
g25
I00
sg31
I00
sg32
I00
sg21
(lp287
sg26
g0
(g92
g2
Ntp288
Rp289
(dp290
g25
I00
sg31
I00
sg32
I00
sg96
g0
(g97
g2
Ntp291
Rp292
(dp293
g101
g0
(g102
g2
Ntp294
Rp295
(dp296
g25
I00
sg31
I01
sg32
I00
sg21
(lp297
g148
ag149
ag150
ag151
ag152
ag153
ag154
aVfilename
p298
aVextension
p299
aVoutput
p300
asg26
g94
sg148
g0
(g92
g2
Ntp301
Rp302
(dp303
g25
I00
sg31
I00
sg32
I00
sg96
g159
sg117
Nsbsg149
g0
(g92
g2
Ntp304
Rp305
(dp306
g25
I00
sg31
I00
sg32
I00
sg96
g159
sg117
Nsbsg150
g0
(g92
g2
Ntp307
Rp308
(dp309
g25
I00
sg31
I00
sg32
I00
sg96
g110
sg117
Nsbsg151
g0
(g92
g2
Ntp310
Rp311
(dp312
g25
I00
sg31
I00
sg32
I00
sg96
g169
sg117
Nsbsg152
g0
(g92
g2
Ntp313
Rp314
(dp315
g25
I00
sg31
I00
sg32
I00
sg96
g169
sg117
Nsbsg153
g0
(g159
g2
Ntp316
Rp317
(dp318
g25
I00
sg31
I00
sg32
I00
sg33
I00
sbsg154
g0
(g159
g2
Ntp319
Rp320
(dp321
g25
I00
sg31
I00
sg32
I00
sg33
I00
sbsg298
g0
(g92
g2
Ntp322
Rp323
(dp324
g25
I00
sg31
I00
sg32
I00
sg96
g169
sg117
Nsbsg299
g0
(g92
g2
Ntp325
Rp326
(dp327
g25
I00
sg31
I00
sg32
I00
sg96
g169
sg117
Nsbsg300
g0
(g92
g2
Ntp328
Rp329
(dp330
g25
I00
sg31
I00
sg32
I00
sg96
g169
sg117
Nsbsbsbsg117
Nsbsbsg37
g38
sg39
I13
sV_inProcess
p331
I01
sbssV_Process__essources
p332
(dp333
sV_Process__esproducers
p334
(dp335
sV_Process__esprefers
p336
(dp337
sV_Process__aliases
p338
(dp339
sV_Process__psets
p340
(dp341
VmaxLuminosityBlocks
p342
g0
(g102
g2
Ntp343
Rp344
(dp345
g25
I00
sg31
I00
sg32
I00
sg21
(lp346
Vinput
p347
asg26
Nsg347
g0
(g110
g2
Ntp348
Rp349
(dp350
g25
I00
sg31
I00
sg32
I00
sg33
I-1
sbsV_Labelable__label
p351
g342
sbsVmaxEvents
p352
g0
(g102
g2
Ntp353
Rp354
(dp355
g25
I00
sg31
I00
sg32
I01
sg21
(lp356
g347
ag300
asg26
Nsg347
g0
(g92
g2
Ntp357
Rp358
(dp359
g25
I00
sg31
I00
sg32
I00
sg96
g110
sg117
g0
(g110
g2
Ntp360
Rp361
(dp362
g25
I00
sg31
I00
sg32
I00
sg33
I1
sbsbsg300
g0
(g92
g2
Ntp363
Rp364
(dp365
g25
I00
sg31
I00
sg32
I00
sg96
g0
(cFWCore.ParameterSet.Types
_AllowedParameterTypes
p366
g2
Ntp367
Rp368
(dp369
V_AllowedParameterTypes__types
p370
(g110
g102
tp371
sV_default
p372
NsV__name__
p373
Vallowed(cms.int32,cms.PSet)
p374
sbsg117
Nsbsg351
g352
sbsVoptions
p375
g0
(g102
g2
Ntp376
Rp377
(dp378
g25
I00
sg31
I00
sg32
I01
sg21
(lp379
VnumberOfThreads
p380
aVnumberOfStreams
p381
aVnumberOfConcurrentRuns
p382
aVnumberOfConcurrentLuminosityBlocks
p383
aVeventSetup
p384
aVaccelerators
p385
aVwantSummary
p386
aVfileMode
p387
aVforceEventSetupCacheClearOnNewRun
p388
aVthrowIfIllegalParameter
p389
aVprintDependencies
p390
aVdeleteNonConsumedUnscheduledModules
p391
aVsizeOfStackForThreadsInKB
p392
aVRethrow
p393
aVTryToContinue
p394
aVIgnoreCompletely
p395
aVmodulesToCallForTryToContinue
p396
aVcanDeleteEarly
p397
aVholdsReferencesToDeleteEarly
p398
aVmodulesToIgnoreForDeleteEarly
p399
aVdumpOptions
p400
aVallowUnscheduled
p401
aVemptyRunLumiMode
p402
aVmakeTriggerResults
p403
asg26
Nsg380
g0
(g27
g2
Ntp404
Rp405
(dp406
g25
I00
sg31
I00
sg32
I00
sg33
I1
sbsg381
g0
(g27
g2
Ntp407
Rp408
(dp409
g25
I00
sg31
I00
sg32
I00
sg33
I0
sbsg382
g0
(g27
g2
Ntp410
Rp411
(dp412
g25
I00
sg31
I00
sg32
I00
sg33
I1
sbsg383
g0
(g27
g2
Ntp413
Rp414
(dp415
g25
I00
sg31
I00
sg32
I00
sg33
I0
sbsg384
g0
(g102
g2
Ntp416
Rp417
(dp418
g25
I00
sg31
I00
sg32
I00
sg21
(lp419
VnumberOfConcurrentIOVs
p420
aVforceNumberOfConcurrentIOVs
p421
asg26
Nsg420
g0
(g27
g2
Ntp422
Rp423
(dp424
g25
I00
sg31
I00
sg32
I00
sg33
I0
sbsg421
g0
(g102
g2
Ntp425
Rp426
(dp427
g25
I00
sg31
I00
sg32
I00
sg21
(lp428
sg26
g0
(cFWCore.ParameterSet.Types
_RequiredParameter
p429
g2
Ntp430
Rp431
(dp432
g25
I00
sg31
I00
sg32
I00
sg96
g27
sg117
Nsbsbsbsg385
g0
(g121
g122
(lp433
V*
p434
atp435
Rp436
(dp437
g25
I00
sg31
I00
sg32
I00
sg127
I1
sbsg386
g0
(g159
g2
Ntp438
Rp439
(dp440
g25
I00
sg31
I00
sg32
I00
sg33
I00
sbsg387
g0
(g169
g2
Ntp441
Rp442
(dp443
g25
I00
sg31
I00
sg32
I00
sg33
VFULLMERGE
p444
sbsg388
g0
(g159
g2
Ntp445
Rp446
(dp447
g25
I00
sg31
I00
sg32
I00
sg33
I00
sbsg389
g0
(g159
g2
Ntp448
Rp449
(dp450
g25
I00
sg31
I00
sg32
I00
sg33
I01
sbsg390
g0
(g159
g2
Ntp451
Rp452
(dp453
g25
I00
sg31
I00
sg32
I00
sg33
I00
sbsg391
g0
(g159
g2
Ntp454
Rp455
(dp456
g25
I00
sg31
I00
sg32
I00
sg33
I01
sbsg392
g0
(g92
g2
Ntp457
Rp458
(dp459
g25
I00
sg31
I00
sg32
I00
sg96
g27
sg117
Nsbsg393
g0
(g121
g122
(lp460
tp461
Rp462
(dp463
g25
I00
sg31
I00
sg32
I00
sg127
I1
sbsg394
g0
(g121
g122
(lp464
tp465
Rp466
(dp467
g25
I00
sg31
I00
sg32
I00
sg127
I1
sbsg395
g0
(g121
g122
(lp468
tp469
Rp470
(dp471
g25
I00
sg31
I00
sg32
I00
sg127
I1
sbsg396
g0
(g121
g122
(lp472
tp473
Rp474
(dp475
g25
I00
sg31
I00
sg32
I00
sg127
I1
sbsg397
g0
(g121
g122
(lp476
tp477
Rp478
(dp479
g25
I00
sg31
I00
sg32
I00
sg127
I1
sbsg398
g0
(cFWCore.ParameterSet.Types
VPSet
p480
g122
(lp481
tp482
Rp483
(dp484
g25
I00
sg31
I00
sg32
I00
sg127
I1
sbsg399
g0
(g121
g122
(lp485
tp486
Rp487
(dp488
g25
I00
sg31
I00
sg32
I00
sg127
I1
sbsg400
g0
(g159
g2
Ntp489
Rp490
(dp491
g25
I00
sg31
I00
sg32
I00
sg33
I00
sbsg401
g0
(cFWCore.ParameterSet.Types
_ObsoleteParameter
p492
g2
Ntp493
Rp494
(dp495
g25
I00
sg31
I00
sg32
I00
sg96
g159
sg117
Nsbsg402
g0
(g492
g2
Ntp496
Rp497
(dp498
g25
I00
sg31
I00
sg32
I00
sg96
g169
sg117
Nsbsg403
g0
(g492
g2
Ntp499
Rp500
(dp501
g25
I00
sg31
I00
sg32
I00
sg96
g159
sg117
Nsbsg351
g375
sbssV_Process__vpsets
p502
(dp503
sV_cloneToObjectDict
p504
(dp505
L140379015136112L
g0
(g102
g2
Ntp506
Rp507
(dp508
g25
I00
sg31
I00
sg32
I00
sg21
(lp509
g380
ag381
ag382
ag383
ag384
ag385
ag386
ag387
ag388
ag389
ag390
ag391
ag392
ag393
ag394
ag395
ag396
ag397
ag398
ag399
ag400
ag401
ag402
ag403
asg26
Nsg380
g0
(g27
g2
Ntp510
Rp511
(dp512
g25
I00
sg31
I00
sg32
I00
sg33
I1
sbsg381
g0
(g27
g2
Ntp513
Rp514
(dp515
g25
I00
sg31
I00
sg32
I00
sg33
I0
sbsg382
g0
(g27
g2
Ntp516
Rp517
(dp518
g25
I00
sg31
I00
sg32
I00
sg33
I1
sbsg383
g0
(g27
g2
Ntp519
Rp520
(dp521
g25
I00
sg31
I00
sg32
I00
sg33
I0
sbsg384
g0
(g102
g2
Ntp522
Rp523
(dp524
g25
I00
sg31
I00
sg32
I00
sg21
(lp525
g420
ag421
asg26
Nsg420
g0
(g27
g2
Ntp526
Rp527
(dp528
g25
I00
sg31
I00
sg32
I00
sg33
I0
sbsg421
g0
(g102
g2
Ntp529
Rp530
(dp531
g25
I00
sg31
I00
sg32
I00
sg21
(lp532
sg26
g0
(g429
g2
Ntp533
Rp534
(dp535
g25
I00
sg31
I00
sg32
I00
sg96
g27
sg117
Nsbsbsbsg385
g0
(g121
g122
(lp536
g434
atp537
Rp538
(dp539
g25
I00
sg31
I00
sg32
I00
sg127
I1
sbsg386
g0
(g159
g2
Ntp540
Rp541
(dp542
g25
I00
sg31
I00
sg32
I00
sg33
I00
sbsg387
g0
(g169
g2
Ntp543
Rp544
(dp545
g25
I00
sg31
I00
sg32
I00
sg33
g444
sbsg388
g0
(g159
g2
Ntp546
Rp547
(dp548
g25
I00
sg31
I00
sg32
I00
sg33
I00
sbsg389
g0
(g159
g2
Ntp549
Rp550
(dp551
g25
I00
sg31
I00
sg32
I00
sg33
I01
sbsg390
g0
(g159
g2
Ntp552
Rp553
(dp554
g25
I00
sg31
I00
sg32
I00
sg33
I00
sbsg391
g0
(g159
g2
Ntp555
Rp556
(dp557
g25
I00
sg31
I00
sg32
I00
sg33
I01
sbsg392
g0
(g92
g2
Ntp558
Rp559
(dp560
g25
I00
sg31
I00
sg32
I00
sg96
g27
sg117
Nsbsg393
g0
(g121
g122
(lp561
tp562
Rp563
(dp564
g25
I00
sg31
I00
sg32
I00
sg127
I1
sbsg394
g0
(g121
g122
(lp565
tp566
Rp567
(dp568
g25
I00
sg31
I00
sg32
I00
sg127
I1
sbsg395
g0
(g121
g122
(lp569
tp570
Rp571
(dp572
g25
I00
sg31
I00
sg32
I00
sg127
I1
sbsg396
g0
(g121
g122
(lp573
tp574
Rp575
(dp576
g25
I00
sg31
I00
sg32
I00
sg127
I1
sbsg397
g0
(g121
g122
(lp577
tp578
Rp579
(dp580
g25
I00
sg31
I00
sg32
I00
sg127
I1
sbsg398
g0
(g480
g122
(lp581
tp582
Rp583
(dp584
g25
I00
sg31
I00
sg32
I00
sg127
I1
sbsg399
g0
(g121
g122
(lp585
tp586
Rp587
(dp588
g25
I00
sg31
I00
sg32
I00
sg127
I1
sbsg400
g0
(g159
g2
Ntp589
Rp590
(dp591
g25
I00
sg31
I00
sg32
I00
sg33
I00
sbsg401
g0
(g492
g2
Ntp592
Rp593
(dp594
g25
I00
sg31
I00
sg32
I00
sg96
g159
sg117
Nsbsg402
g0
(g492
g2
Ntp595
Rp596
(dp597
g25
I00
sg31
I00
sg32
I00
sg96
g169
sg117
Nsbsg403
g0
(g492
g2
Ntp598
Rp599
(dp600
g25
I00
sg31
I00
sg32
I00
sg96
g159
sg117
Nsbsg351
NsbsL140379016096160L
g0
(g102
g2
Ntp601
Rp602
(dp603
g25
I00
sg31
I00
sg32
I00
sg21
(lp604
g347
ag300
asg26
Nsg347
g0
(g92
g2
Ntp605
Rp606
(dp607
g25
I00
sg31
I00
sg32
I00
sg96
g110
sg117
Nsbsg300
g0
(g92
g2
Ntp608
Rp609
(dp610
g25
I00
sg31
I00
sg32
I00
sg96
g0
(g366
g2
Ntp611
Rp612
(dp613
g370
(g110
g102
tp614
sg372
Nsg373
Vallowed(cms.int32,cms.PSet)
p615
sbsg117
Nsbsg351
NsbsL140379016096208L
g344
sL140379016095776L
g354
sL140379016095200L
g377
ssV_Process__InExtendCall
p616
I00
sV_Process__partialschedules
p617
(dp618
sV_Process__isStrict
p619
I00
sV_Process__modifiers
p620
(tsV_Process__accelerators
p621
(dp622
sg342
g344
sg77
g80
sVsource
p623
g17
sg20
g17
sg352
g354
sg375
g377
sb.